target datalayout = "e-m:e-p270:32:32-p271:32:32-p272:64:64-i64:64-i128:128-f80:128-n8:16:32:64-S128"
target triple = "x86_64-pc-linux-gnu"

%struct.H5F_t = type { ptr, ptr, ptr, ptr, i32, ptr, i8, i8, ptr, i32 }
%struct.H5F_shared_t = type { ptr, ptr, ptr, i8, i32, i32, %struct.H5F_mtab_t, ptr, i8, i8, i64, i32, i32, i64, i64, ptr, ptr, %struct.H5AC_cache_config_t, %struct.H5AC_cache_image_config_t, i8, i8, ptr, i64, i32, i8, i64, i64, double, i64, i64, i64, i32, i32, i32, i8, i32, ptr, ptr, ptr, ptr, i8, i8, i8, i64, ptr, ptr, i32, i64, i8, i32, i8, i64, i8, [13 x i32], [13 x i64], [13 x ptr], i8, i64, i64, [7 x i32], [7 x i32], %struct.H5F_blk_aggr_t, %struct.H5F_blk_aggr_t, i64, i64, %struct.H5F_meta_accum_t, i32, i32, [30 x ptr], %struct.H5F_object_flush_t, i8, ptr }
%struct.H5F_mtab_t = type { i32, i32, ptr }
%struct.H5AC_cache_config_t = type { i32, i8, i8, i8, [1025 x i8], i8, i8, i64, double, i64, i64, i64, i32, double, double, i8, i64, i32, double, double, i32, double, double, i8, i64, i32, i8, double, i64, i32 }
%struct.H5AC_cache_image_config_t = type { i32, i8, i8, i32 }
%struct.H5F_blk_aggr_t = type { i64, i64, i64, i64, i64 }
%struct.H5F_meta_accum_t = type { ptr, i64, i64, i64, i64, i64, i8 }
%struct.H5F_object_flush_t = type { ptr, ptr }
%struct.H5C_cache_entry_t = type { ptr, i64, i64, ptr, i8, ptr, i8, i8, i8, i8, i32, i8, i8, i8, i8, i8, i32, ptr, i32, i32, i32, i32, i32, i8, i8, ptr, ptr, ptr, ptr, ptr, ptr, i8, i32, i8, i64, ptr, i64, i64, i32, i8, i32, i32, i8, ptr, ptr, ptr }
%struct.H5C_t = type { i8, ptr, ptr, i32, ptr, i64, i64, ptr, i8, ptr, i8, i8, i32, i64, [6 x i32], [6 x i64], i64, [6 x i64], i64, [6 x i64], [65536 x ptr], i32, i64, ptr, ptr, i64, ptr, ptr, i8, i8, i32, i64, [6 x i32], [6 x i64], ptr, i32, ptr, i8, i32, i32, i64, ptr, ptr, i32, i64, ptr, ptr, i32, i64, ptr, ptr, i8, i8, i64, i8, i8, i8, i8, i8, i8, %struct.H5C_auto_size_ctl_t, i32, [10 x i8], [11 x i32], i32, i32, i32, [10 x %struct.H5C_cache_entry_t], i64, i64, %struct.H5C_cache_image_ctl_t, i8, i8, i8, i8, i64, i64, i64, i64, i64, i64, i64, i32, ptr, ptr, i8, i8, [32 x i8] }
%struct.H5C_auto_size_ctl_t = type { i32, ptr, i8, i64, double, i64, i64, i64, i32, double, double, i8, i64, i32, double, double, i32, double, double, i8, i64, i32, i8, double }
%struct.H5C_cache_image_ctl_t = type { i32, i8, i8, i32, i32 }

@H5C_init_g = external global i8, align 1
@H5_libterm_g = external global i8, align 1
@.str = private unnamed_addr constant [102 x i8] c"generated/home/dtcxzyw/WorkSpace/Projects/compilers/llvm-opt-benchmark/bench/hdf5/hdf5/src/H5Centry.c\00", align 1
@H5E_CACHE_g = external global i64, align 8
@__func__.H5C_expunge_entry = private unnamed_addr constant [18 x i8] c"H5C_expunge_entry\00", align 1
@H5E_CANTEXPUNGE_g = external global i64, align 8
@.str.72 = private unnamed_addr constant [26 x i8] c"Target entry is protected\00", align 1
@.str.73 = private unnamed_addr constant [23 x i8] c"Target entry is pinned\00", align 1
@.str.74 = private unnamed_addr constant [18 x i8] c"can't flush entry\00", align 1

; Function Attrs: nounwind uwtable
define i32 @H5C_expunge_entry(ptr noundef %0, ptr noundef %1, i64 noundef %2, i32 noundef %3) #0 {
  %5 = alloca ptr, align 8
  %6 = alloca ptr, align 8
  %7 = alloca i64, align 8
  %8 = alloca i32, align 4
  %9 = alloca ptr, align 8
  %10 = alloca ptr, align 8
  %11 = alloca i32, align 4
  %12 = alloca i32, align 4
  %13 = alloca i8, align 1
  %14 = alloca i32, align 4
  %15 = alloca i32, align 4
  store ptr %0, ptr %5, align 8, !tbaa !3
  store ptr %1, ptr %6, align 8, !tbaa !74
  store i64 %2, ptr %7, align 8, !tbaa !14
  store i32 %3, ptr %8, align 4, !tbaa !10
  call void @llvm.lifetime.start.p0(i64 8, ptr %9) #7
  call void @llvm.lifetime.start.p0(i64 8, ptr %10) #7
  store ptr null, ptr %10, align 8, !tbaa !8
  call void @llvm.lifetime.start.p0(i64 4, ptr %11) #7
  store i32 48, ptr %11, align 4, !tbaa !10
  call void @llvm.lifetime.start.p0(i64 4, ptr %12) #7
  store i32 0, ptr %12, align 4, !tbaa !10
  call void @llvm.lifetime.start.p0(i64 1, ptr %13) #7
  store i8 0, ptr %13, align 1, !tbaa !12
  %16 = load i8, ptr @H5C_init_g, align 1, !tbaa !12, !range !16, !noundef !17
  %17 = trunc i8 %16 to i1
  br i1 %17, label %22, label %18

18:                                               ; preds = %4
  %19 = load i8, ptr @H5_libterm_g, align 1, !tbaa !12, !range !16, !noundef !17
  %20 = trunc i8 %19 to i1
  %21 = xor i1 %20, true
  br label %22

22:                                               ; preds = %18, %4
  %23 = phi i1 [ false, %4 ], [ %21, %18 ]
  %24 = xor i1 %23, true
  %25 = xor i1 %24, true
  %26 = zext i1 %25 to i32
  %27 = sext i32 %26 to i64
  %28 = call i64 @llvm.expect.i64(i64 %27, i64 0)
  %29 = icmp ne i64 %28, 0
  br i1 %29, label %30, label %31

30:                                               ; preds = %22
  store i8 1, ptr @H5C_init_g, align 1, !tbaa !12
  br label %31

31:                                               ; preds = %30, %22
  %32 = load i8, ptr @H5C_init_g, align 1, !tbaa !12, !range !16, !noundef !17
  %33 = trunc i8 %32 to i1
  br i1 %33, label %38, label %34

34:                                               ; preds = %31
  %35 = load i8, ptr @H5_libterm_g, align 1, !tbaa !12, !range !16, !noundef !17
  %36 = trunc i8 %35 to i1
  %37 = xor i1 %36, true
  br label %38

38:                                               ; preds = %34, %31
  %39 = phi i1 [ true, %31 ], [ %37, %34 ]
  %40 = xor i1 %39, true
  %41 = xor i1 %40, true
  %42 = zext i1 %41 to i32
  %43 = sext i32 %42 to i64
  %44 = call i64 @llvm.expect.i64(i64 %43, i64 1)
  %45 = icmp ne i64 %44, 0
  br i1 %45, label %46, label %235

46:                                               ; preds = %38
  %47 = load ptr, ptr %5, align 8, !tbaa !3
  %48 = getelementptr inbounds nuw %struct.H5F_t, ptr %47, i32 0, i32 2
  %49 = load ptr, ptr %48, align 8, !tbaa !18
  %50 = getelementptr inbounds nuw %struct.H5F_shared_t, ptr %49, i32 0, i32 16
  %51 = load ptr, ptr %50, align 8, !tbaa !24
  store ptr %51, ptr %9, align 8, !tbaa !44
  br label %52

52:                                               ; preds = %46
  call void @llvm.lifetime.start.p0(i64 4, ptr %14) #7
  call void @llvm.lifetime.start.p0(i64 4, ptr %15) #7
  store i32 0, ptr %15, align 4, !tbaa !10
  %53 = load i64, ptr %7, align 8, !tbaa !14
  %54 = and i64 %53, 524280
  %55 = trunc i64 %54 to i32
  %56 = lshr i32 %55, 3
  store i32 %56, ptr %14, align 4, !tbaa !10
  %57 = load ptr, ptr %9, align 8, !tbaa !44
  %58 = getelementptr inbounds nuw %struct.H5C_t, ptr %57, i32 0, i32 20
  %59 = load i32, ptr %14, align 4, !tbaa !10
  %60 = sext i32 %59 to i64
  %61 = getelementptr inbounds [65536 x ptr], ptr %58, i64 0, i64 %60
  %62 = load ptr, ptr %61, align 8, !tbaa !8
  store ptr %62, ptr %10, align 8, !tbaa !8
  br label %63

63:                                               ; preds = %130, %52
  %64 = load ptr, ptr %10, align 8, !tbaa !8
  %65 = icmp ne ptr %64, null
  br i1 %65, label %66, label %136

66:                                               ; preds = %63
  %67 = load i64, ptr %7, align 8, !tbaa !14
  %68 = icmp ne i64 %67, -1
  br i1 %68, label %69, label %130

69:                                               ; preds = %66
  %70 = load i64, ptr %7, align 8, !tbaa !14
  %71 = load ptr, ptr %10, align 8, !tbaa !8
  %72 = getelementptr inbounds nuw %struct.H5C_cache_entry_t, ptr %71, i32 0, i32 1
  %73 = load i64, ptr %72, align 8, !tbaa !76
  %74 = icmp eq i64 %70, %73
  br i1 %74, label %75, label %130

75:                                               ; preds = %69
  %76 = load ptr, ptr %10, align 8, !tbaa !8
  %77 = load ptr, ptr %9, align 8, !tbaa !44
  %78 = getelementptr inbounds nuw %struct.H5C_t, ptr %77, i32 0, i32 20
  %79 = load i32, ptr %14, align 4, !tbaa !10
  %80 = sext i32 %79 to i64
  %81 = getelementptr inbounds [65536 x ptr], ptr %78, i64 0, i64 %80
  %82 = load ptr, ptr %81, align 8, !tbaa !8
  %83 = icmp ne ptr %76, %82
  br i1 %83, label %84, label %129

84:                                               ; preds = %75
  %85 = load ptr, ptr %10, align 8, !tbaa !8
  %86 = getelementptr inbounds nuw %struct.H5C_cache_entry_t, ptr %85, i32 0, i32 25
  %87 = load ptr, ptr %86, align 8, !tbaa !78
  %88 = icmp ne ptr %87, null
  br i1 %88, label %89, label %97

89:                                               ; preds = %84
  %90 = load ptr, ptr %10, align 8, !tbaa !8
  %91 = getelementptr inbounds nuw %struct.H5C_cache_entry_t, ptr %90, i32 0, i32 26
  %92 = load ptr, ptr %91, align 8, !tbaa !79
  %93 = load ptr, ptr %10, align 8, !tbaa !8
  %94 = getelementptr inbounds nuw %struct.H5C_cache_entry_t, ptr %93, i32 0, i32 25
  %95 = load ptr, ptr %94, align 8, !tbaa !78
  %96 = getelementptr inbounds nuw %struct.H5C_cache_entry_t, ptr %95, i32 0, i32 26
  store ptr %92, ptr %96, align 8, !tbaa !79
  br label %97

97:                                               ; preds = %89, %84
  %98 = load ptr, ptr %10, align 8, !tbaa !8
  %99 = getelementptr inbounds nuw %struct.H5C_cache_entry_t, ptr %98, i32 0, i32 25
  %100 = load ptr, ptr %99, align 8, !tbaa !78
  %101 = load ptr, ptr %10, align 8, !tbaa !8
  %102 = getelementptr inbounds nuw %struct.H5C_cache_entry_t, ptr %101, i32 0, i32 26
  %103 = load ptr, ptr %102, align 8, !tbaa !79
  %104 = getelementptr inbounds nuw %struct.H5C_cache_entry_t, ptr %103, i32 0, i32 25
  store ptr %100, ptr %104, align 8, !tbaa !78
  %105 = load ptr, ptr %10, align 8, !tbaa !8
  %106 = load ptr, ptr %9, align 8, !tbaa !44
  %107 = getelementptr inbounds nuw %struct.H5C_t, ptr %106, i32 0, i32 20
  %108 = load i32, ptr %14, align 4, !tbaa !10
  %109 = sext i32 %108 to i64
  %110 = getelementptr inbounds [65536 x ptr], ptr %107, i64 0, i64 %109
  %111 = load ptr, ptr %110, align 8, !tbaa !8
  %112 = getelementptr inbounds nuw %struct.H5C_cache_entry_t, ptr %111, i32 0, i32 26
  store ptr %105, ptr %112, align 8, !tbaa !79
  %113 = load ptr, ptr %9, align 8, !tbaa !44
  %114 = getelementptr inbounds nuw %struct.H5C_t, ptr %113, i32 0, i32 20
  %115 = load i32, ptr %14, align 4, !tbaa !10
  %116 = sext i32 %115 to i64
  %117 = getelementptr inbounds [65536 x ptr], ptr %114, i64 0, i64 %116
  %118 = load ptr, ptr %117, align 8, !tbaa !8
  %119 = load ptr, ptr %10, align 8, !tbaa !8
  %120 = getelementptr inbounds nuw %struct.H5C_cache_entry_t, ptr %119, i32 0, i32 25
  store ptr %118, ptr %120, align 8, !tbaa !78
  %121 = load ptr, ptr %10, align 8, !tbaa !8
  %122 = getelementptr inbounds nuw %struct.H5C_cache_entry_t, ptr %121, i32 0, i32 26
  store ptr null, ptr %122, align 8, !tbaa !79
  %123 = load ptr, ptr %10, align 8, !tbaa !8
  %124 = load ptr, ptr %9, align 8, !tbaa !44
  %125 = getelementptr inbounds nuw %struct.H5C_t, ptr %124, i32 0, i32 20
  %126 = load i32, ptr %14, align 4, !tbaa !10
  %127 = sext i32 %126 to i64
  %128 = getelementptr inbounds [65536 x ptr], ptr %125, i64 0, i64 %127
  store ptr %123, ptr %128, align 8, !tbaa !8
  br label %129

129:                                              ; preds = %97, %75
  br label %136

130:                                              ; preds = %69, %66
  %131 = load ptr, ptr %10, align 8, !tbaa !8
  %132 = getelementptr inbounds nuw %struct.H5C_cache_entry_t, ptr %131, i32 0, i32 25
  %133 = load ptr, ptr %132, align 8, !tbaa !78
  store ptr %133, ptr %10, align 8, !tbaa !8
  %134 = load i32, ptr %15, align 4, !tbaa !10
  %135 = add nsw i32 %134, 1
  store i32 %135, ptr %15, align 4, !tbaa !10
  br label %63, !llvm.loop !194

136:                                              ; preds = %129, %63
  br label %137

137:                                              ; preds = %136
  br label %138

138:                                              ; preds = %137
  br label %139

139:                                              ; preds = %138
  call void @llvm.lifetime.end.p0(i64 4, ptr %15) #7
  call void @llvm.lifetime.end.p0(i64 4, ptr %14) #7
  br label %140

140:                                              ; preds = %139
  br label %141

141:                                              ; preds = %140
  %142 = load ptr, ptr %10, align 8, !tbaa !8
  %143 = icmp eq ptr %142, null
  br i1 %143, label %150, label %144

144:                                              ; preds = %141
  %145 = load ptr, ptr %10, align 8, !tbaa !8
  %146 = getelementptr inbounds nuw %struct.H5C_cache_entry_t, ptr %145, i32 0, i32 5
  %147 = load ptr, ptr %146, align 8, !tbaa !68
  %148 = load ptr, ptr %6, align 8, !tbaa !74
  %149 = icmp ne ptr %147, %148
  br i1 %149, label %150, label %154

150:                                              ; preds = %144, %141
  br label %151

151:                                              ; preds = %150
  store i32 0, ptr %12, align 4, !tbaa !10
  br label %234

152:                                              ; No predecessors!
  br label %153

153:                                              ; preds = %152
  br label %154

154:                                              ; preds = %153, %144
  %155 = load ptr, ptr %10, align 8, !tbaa !8
  %156 = getelementptr inbounds nuw %struct.H5C_cache_entry_t, ptr %155, i32 0, i32 8
  %157 = load i8, ptr %156, align 2, !tbaa !62, !range !16, !noundef !17
  %158 = trunc i8 %157 to i1
  br i1 %158, label %159, label %178

159:                                              ; preds = %154
  br label %160

160:                                              ; preds = %159
  br label %161

161:                                              ; preds = %160
  br label %162

162:                                              ; preds = %161
  %163 = load i64, ptr @H5E_CACHE_g, align 8, !tbaa !14
  %164 = load i64, ptr @H5E_CANTEXPUNGE_g, align 8, !tbaa !14
  %165 = call i32 (ptr, ptr, i32, i64, i64, ptr, ...) @H5E_printf_stack(ptr noundef @.str, ptr noundef @__func__.H5C_expunge_entry, i32 noundef 4045, i64 noundef %163, i64 noundef %164, ptr noundef @.str.72)
  br label %166

166:                                              ; preds = %162
  br label %167

167:                                              ; preds = %166
  store i8 1, ptr %13, align 1, !tbaa !12
  %168 = load i8, ptr %13, align 1, !tbaa !12, !range !16, !noundef !17
  %169 = trunc i8 %168 to i1
  %170 = zext i1 %169 to i8
  store i8 %170, ptr %13, align 1, !tbaa !12
  br label %171

171:                                              ; preds = %167
  br label %172

172:                                              ; preds = %171
  br label %173

173:                                              ; preds = %172
  store i32 -1, ptr %12, align 4, !tbaa !10
  br label %234

174:                                              ; No predecessors!
  br label %175

175:                                              ; preds = %174
  br label %176

176:                                              ; preds = %175
  br label %177

177:                                              ; preds = %176
  br label %178

178:                                              ; preds = %177, %154
  %179 = load ptr, ptr %10, align 8, !tbaa !8
  %180 = getelementptr inbounds nuw %struct.H5C_cache_entry_t, ptr %179, i32 0, i32 11
  %181 = load i8, ptr %180, align 8, !tbaa !105, !range !16, !noundef !17
  %182 = trunc i8 %181 to i1
  br i1 %182, label %183, label %202

183:                                              ; preds = %178
  br label %184

184:                                              ; preds = %183
  br label %185

185:                                              ; preds = %184
  br label %186

186:                                              ; preds = %185
  %187 = load i64, ptr @H5E_CACHE_g, align 8, !tbaa !14
  %188 = load i64, ptr @H5E_CANTEXPUNGE_g, align 8, !tbaa !14
  %189 = call i32 (ptr, ptr, i32, i64, i64, ptr, ...) @H5E_printf_stack(ptr noundef @.str, ptr noundef @__func__.H5C_expunge_entry, i32 noundef 4047, i64 noundef %187, i64 noundef %188, ptr noundef @.str.73)
  br label %190

190:                                              ; preds = %186
  br label %191

191:                                              ; preds = %190
  store i8 1, ptr %13, align 1, !tbaa !12
  %192 = load i8, ptr %13, align 1, !tbaa !12, !range !16, !noundef !17
  %193 = trunc i8 %192 to i1
  %194 = zext i1 %193 to i8
  store i8 %194, ptr %13, align 1, !tbaa !12
  br label %195

195:                                              ; preds = %191
  br label %196

196:                                              ; preds = %195
  br label %197

197:                                              ; preds = %196
  store i32 -1, ptr %12, align 4, !tbaa !10
  br label %234

198:                                              ; No predecessors!
  br label %199

199:                                              ; preds = %198
  br label %200

200:                                              ; preds = %199
  br label %201

201:                                              ; preds = %200
  br label %202

202:                                              ; preds = %201, %178
  %203 = load i32, ptr %8, align 4, !tbaa !10
  %204 = and i32 %203, 256
  %205 = load i32, ptr %11, align 4, !tbaa !10
  %206 = or i32 %205, %204
  store i32 %206, ptr %11, align 4, !tbaa !10
  %207 = load i32, ptr %11, align 4, !tbaa !10
  %208 = or i32 %207, 8192
  store i32 %208, ptr %11, align 4, !tbaa !10
  %209 = load ptr, ptr %5, align 8, !tbaa !3
  %210 = load ptr, ptr %10, align 8, !tbaa !8
  %211 = load i32, ptr %11, align 4, !tbaa !10
  %212 = call i32 @H5C__flush_single_entry(ptr noundef %209, ptr noundef %210, i32 noundef %211)
  %213 = icmp slt i32 %212, 0
  br i1 %213, label %214, label %233

214:                                              ; preds = %202
  br label %215

215:                                              ; preds = %214
  br label %216

216:                                              ; preds = %215
  br label %217

217:                                              ; preds = %216
  %218 = load i64, ptr @H5E_CACHE_g, align 8, !tbaa !14
  %219 = load i64, ptr @H5E_CANTEXPUNGE_g, align 8, !tbaa !14
  %220 = call i32 (ptr, ptr, i32, i64, i64, ptr, ...) @H5E_printf_stack(ptr noundef @.str, ptr noundef @__func__.H5C_expunge_entry, i32 noundef 4061, i64 noundef %218, i64 noundef %219, ptr noundef @.str.74)
  br label %221

221:                                              ; preds = %217
  br label %222

222:                                              ; preds = %221
  store i8 1, ptr %13, align 1, !tbaa !12
  %223 = load i8, ptr %13, align 1, !tbaa !12, !range !16, !noundef !17
  %224 = trunc i8 %223 to i1
  %225 = zext i1 %224 to i8
  store i8 %225, ptr %13, align 1, !tbaa !12
  br label %226

226:                                              ; preds = %222
  br label %227

227:                                              ; preds = %226
  br label %228

228:                                              ; preds = %227
  store i32 -1, ptr %12, align 4, !tbaa !10
  br label %234

229:                                              ; No predecessors!
  br label %230

230:                                              ; preds = %229
  br label %231

231:                                              ; preds = %230
  br label %232

232:                                              ; preds = %231
  br label %233

233:                                              ; preds = %232, %202
  br label %234

234:                                              ; preds = %233, %228, %197, %173, %151
  br label %235

235:                                              ; preds = %234, %38
  %236 = load i32, ptr %12, align 4, !tbaa !10
  call void @llvm.lifetime.end.p0(i64 1, ptr %13) #7
  call void @llvm.lifetime.end.p0(i64 4, ptr %12) #7
  call void @llvm.lifetime.end.p0(i64 4, ptr %11) #7
  call void @llvm.lifetime.end.p0(i64 8, ptr %10) #7
  call void @llvm.lifetime.end.p0(i64 8, ptr %9) #7
  ret i32 %236
}