; Function Attrs: nounwind uwtable
define range(i32 -1, 1) i32 @H5C_expunge_entry(ptr noundef %0, ptr noundef readnone captures(address) %1, i64 noundef %2, i32 noundef %3) local_unnamed_addr #0 {
  %5 = load i8, ptr @H5C_init_g, align 1, !tbaa !3, !range !7, !noundef !8
  %6 = trunc nuw i8 %5 to i1
  %7 = load i8, ptr @H5_libterm_g, align 1, !range !7
  %8 = trunc nuw i8 %7 to i1
  %9 = select i1 %6, i1 true, i1 %8
  br i1 %9, label %10, label %.thread, !prof !9

.thread:                                          ; preds = %4
  store i8 1, ptr @H5C_init_g, align 1, !tbaa !3
  br label %13

10:                                               ; preds = %4
  %11 = xor i1 %8, true
  %12 = select i1 %6, i1 true, i1 %11
  br i1 %12, label %13, label %.loopexit, !prof !127

13:                                               ; preds = %.thread, %10
  %14 = getelementptr inbounds nuw i8, ptr %0, i64 16
  %15 = load ptr, ptr %14, align 8, !tbaa !10
  %16 = getelementptr inbounds nuw i8, ptr %15, i64 112
  %17 = load ptr, ptr %16, align 8, !tbaa !19
  %18 = lshr i64 %2, 3
  %19 = and i64 %18, 65535
  %20 = getelementptr inbounds nuw i8, ptr %17, i64 280
  %21 = getelementptr inbounds nuw [65536 x ptr], ptr %20, i64 0, i64 %19
  %.04251 = load ptr, ptr %21, align 8, !tbaa !77
  %cond52 = icmp eq ptr %.04251, null
  %.not46 = icmp eq i64 %2, -1
  %or.cond = or i1 %cond52, %.not46
  br i1 %or.cond, label %.loopexit, label %.lr.ph.split

.lr.ph.split:                                     ; preds = %13, %36
  %.04253 = phi ptr [ %.042, %36 ], [ %.04251, %13 ]
  %22 = getelementptr inbounds nuw i8, ptr %.04253, i64 8
  %23 = load i64, ptr %22, align 8, !tbaa !73
  %24 = icmp eq i64 %2, %23
  br i1 %24, label %25, label %36

25:                                               ; preds = %.lr.ph.split
  %.not47 = icmp eq ptr %.04253, %.04251
  br i1 %.not47, label %38, label %26

26:                                               ; preds = %25
  %27 = getelementptr inbounds nuw i8, ptr %.04253, i64 104
  %28 = load ptr, ptr %27, align 8, !tbaa !75
  %.not48 = icmp eq ptr %28, null
  %.phi.trans.insert = getelementptr inbounds nuw i8, ptr %.04253, i64 112
  %.pre = load ptr, ptr %.phi.trans.insert, align 8, !tbaa !76
  br i1 %.not48, label %._crit_edge, label %29

29:                                               ; preds = %26
  %30 = getelementptr inbounds nuw i8, ptr %28, i64 112
  store ptr %.pre, ptr %30, align 8, !tbaa !76
  br label %._crit_edge

._crit_edge:                                      ; preds = %26, %29
  %31 = getelementptr inbounds nuw i8, ptr %.04253, i64 112
  %32 = getelementptr inbounds nuw i8, ptr %.pre, i64 104
  store ptr %28, ptr %32, align 8, !tbaa !75
  %33 = load ptr, ptr %21, align 8, !tbaa !77
  %34 = getelementptr inbounds nuw i8, ptr %33, i64 112
  store ptr %.04253, ptr %34, align 8, !tbaa !76
  %35 = load ptr, ptr %21, align 8, !tbaa !77
  store ptr %35, ptr %27, align 8, !tbaa !75
  store ptr null, ptr %31, align 8, !tbaa !76
  store ptr %.04253, ptr %21, align 8, !tbaa !77
  br label %38

36:                                               ; preds = %.lr.ph.split
  %37 = getelementptr inbounds nuw i8, ptr %.04253, i64 104
  %.042 = load ptr, ptr %37, align 8, !tbaa !77
  %cond = icmp eq ptr %.042, null
  br i1 %cond, label %.loopexit, label %.lr.ph.split, !llvm.loop !192

38:                                               ; preds = %25, %._crit_edge
  %39 = getelementptr inbounds nuw i8, ptr %.04253, i64 40
  %40 = load ptr, ptr %39, align 8, !tbaa !65
  %.not49 = icmp eq ptr %40, %1
  br i1 %.not49, label %41, label %.loopexit

41:                                               ; preds = %38
  %42 = getelementptr inbounds nuw i8, ptr %.04253, i64 50
  %43 = load i8, ptr %42, align 2, !tbaa !58, !range !7, !noundef !8
  %44 = trunc nuw i8 %43 to i1
  br i1 %44, label %45, label %49

45:                                               ; preds = %41
  %46 = load i64, ptr @H5E_CACHE_g, align 8, !tbaa !59
  %47 = load i64, ptr @H5E_CANTEXPUNGE_g, align 8, !tbaa !59
  %48 = tail call i32 (ptr, ptr, i32, i64, i64, ptr, ...) @H5E_printf_stack(ptr noundef nonnull @.str, ptr noundef nonnull @__func__.H5C_expunge_entry, i32 noundef 4045, i64 noundef %46, i64 noundef %47, ptr noundef nonnull @.str.72) #9
  br label %.loopexit

49:                                               ; preds = %41
  %50 = getelementptr inbounds nuw i8, ptr %.04253, i64 56
  %51 = load i8, ptr %50, align 8, !tbaa !102, !range !7, !noundef !8
  %52 = trunc nuw i8 %51 to i1
  br i1 %52, label %53, label %57

53:                                               ; preds = %49
  %54 = load i64, ptr @H5E_CACHE_g, align 8, !tbaa !59
  %55 = load i64, ptr @H5E_CANTEXPUNGE_g, align 8, !tbaa !59
  %56 = tail call i32 (ptr, ptr, i32, i64, i64, ptr, ...) @H5E_printf_stack(ptr noundef nonnull @.str, ptr noundef nonnull @__func__.H5C_expunge_entry, i32 noundef 4047, i64 noundef %54, i64 noundef %55, ptr noundef nonnull @.str.73) #9
  br label %.loopexit

57:                                               ; preds = %49
  %58 = and i32 %3, 256
  %59 = or disjoint i32 %58, 8240
  %60 = tail call i32 @H5C__flush_single_entry(ptr noundef %0, ptr noundef nonnull %.04253, i32 noundef %59)
  %61 = icmp slt i32 %60, 0
  br i1 %61, label %62, label %.loopexit

62:                                               ; preds = %57
  %63 = load i64, ptr @H5E_CACHE_g, align 8, !tbaa !59
  %64 = load i64, ptr @H5E_CANTEXPUNGE_g, align 8, !tbaa !59
  %65 = tail call i32 (ptr, ptr, i32, i64, i64, ptr, ...) @H5E_printf_stack(ptr noundef nonnull @.str, ptr noundef nonnull @__func__.H5C_expunge_entry, i32 noundef 4061, i64 noundef %63, i64 noundef %64, ptr noundef nonnull @.str.74) #9
  br label %.loopexit

.loopexit:                                        ; preds = %36, %13, %38, %45, %53, %62, %57, %10
  %.043 = phi i32 [ -1, %45 ], [ -1, %53 ], [ -1, %62 ], [ 0, %57 ], [ 0, %10 ], [ 0, %38 ], [ 0, %13 ], [ 0, %36 ]
  ret i32 %.043
}